; Function Attrs: mustprogress nofree nounwind uwtable
define void @ucm_printTable(ptr noundef readonly captures(none) %0, ptr noundef captures(none) %1, i8 noundef signext %2) local_unnamed_addr #0 {
  %4 = load ptr, ptr %0, align 8, !tbaa !23
  %5 = getelementptr inbounds nuw i8, ptr %0, i64 12
  %6 = load i32, ptr %5, align 4, !tbaa !24
  %.not = icmp eq i8 %2, 0
  br i1 %.not, label %35, label %.preheader

.preheader:                                       ; preds = %3
  %7 = icmp sgt i32 %6, 0
  br i1 %7, label %.lr.ph, label %.loopexit

.lr.ph:                                           ; preds = %.preheader
  %8 = getelementptr inbounds nuw i8, ptr %0, i64 16
  %9 = getelementptr inbounds nuw i8, ptr %0, i64 32
  br label %10

10:                                               ; preds = %.lr.ph, %ucm_printMapping.exit
  %.022 = phi ptr [ %4, %.lr.ph ], [ %33, %ucm_printMapping.exit ]
  %.01821 = phi i32 [ 0, %.lr.ph ], [ %34, %ucm_printMapping.exit ]
  %11 = getelementptr inbounds nuw i8, ptr %.022, i64 8
  %12 = load i8, ptr %11, align 4, !tbaa !3
  %13 = icmp eq i8 %12, 1
  br i1 %13, label %19, label %14

14:                                               ; preds = %10
  %15 = load ptr, ptr %8, align 8, !tbaa !8
  %16 = load i32, ptr %.022, align 4, !tbaa !14
  %17 = sext i32 %16 to i64
  %18 = getelementptr inbounds i32, ptr %15, i64 %17
  br label %19

19:                                               ; preds = %14, %10
  %20 = phi ptr [ %18, %14 ], [ %.022, %10 ]
  %21 = getelementptr inbounds nuw i8, ptr %.022, i64 9
  %22 = load i8, ptr %21, align 1, !tbaa !15
  %23 = icmp slt i8 %22, 5
  br i1 %23, label %24, label %26

24:                                               ; preds = %19
  %25 = getelementptr inbounds nuw i8, ptr %.022, i64 4
  br label %ucm_printMapping.exit

26:                                               ; preds = %19
  %27 = load ptr, ptr %9, align 8, !tbaa !16
  %28 = getelementptr inbounds nuw i8, ptr %.022, i64 4
  %29 = load i32, ptr %28, align 4, !tbaa !17
  %30 = zext i32 %29 to i64
  %31 = getelementptr inbounds nuw i8, ptr %27, i64 %30
  br label %ucm_printMapping.exit

ucm_printMapping.exit:                            ; preds = %24, %26
  %32 = phi ptr [ %25, %24 ], [ %31, %26 ]
  tail call fastcc void @_ZL12printMappingP9UCMappingPiPhP8_IO_FILE(ptr noundef nonnull readonly %.022, ptr noundef %20, ptr noundef %32, ptr noundef %1)
  %33 = getelementptr inbounds nuw i8, ptr %.022, i64 12
  %34 = add nuw nsw i32 %.01821, 1
  %exitcond.not = icmp eq i32 %34, %6
  br i1 %exitcond.not, label %.loopexit, label %10, !llvm.loop !25

35:                                               ; preds = %3
  %36 = getelementptr inbounds nuw i8, ptr %0, i64 48
  %37 = load ptr, ptr %36, align 8, !tbaa !26
  %38 = icmp sgt i32 %6, 0
  br i1 %38, label %.lr.ph24, label %.loopexit

.lr.ph24:                                         ; preds = %35
  %39 = getelementptr inbounds nuw i8, ptr %0, i64 16
  %40 = getelementptr inbounds nuw i8, ptr %0, i64 32
  %wide.trip.count = zext nneg i32 %6 to i64
  br label %41

41:                                               ; preds = %.lr.ph24, %ucm_printMapping.exit19
  %indvars.iv = phi i64 [ 0, %.lr.ph24 ], [ %indvars.iv.next, %ucm_printMapping.exit19 ]
  %42 = getelementptr inbounds nuw i32, ptr %37, i64 %indvars.iv
  %43 = load i32, ptr %42, align 4, !tbaa !18
  %44 = sext i32 %43 to i64
  %45 = getelementptr inbounds %struct.UCMapping, ptr %4, i64 %44
  %46 = getelementptr inbounds nuw i8, ptr %45, i64 8
  %47 = load i8, ptr %46, align 4, !tbaa !3
  %48 = icmp eq i8 %47, 1
  br i1 %48, label %54, label %49

49:                                               ; preds = %41
  %50 = load ptr, ptr %39, align 8, !tbaa !8
  %51 = load i32, ptr %45, align 4, !tbaa !14
  %52 = sext i32 %51 to i64
  %53 = getelementptr inbounds i32, ptr %50, i64 %52
  br label %54

54:                                               ; preds = %49, %41
  %55 = phi ptr [ %53, %49 ], [ %45, %41 ]
  %56 = getelementptr inbounds nuw i8, ptr %45, i64 9
  %57 = load i8, ptr %56, align 1, !tbaa !15
  %58 = icmp slt i8 %57, 5
  br i1 %58, label %59, label %61

59:                                               ; preds = %54
  %60 = getelementptr inbounds nuw i8, ptr %45, i64 4
  br label %ucm_printMapping.exit19

61:                                               ; preds = %54
  %62 = load ptr, ptr %40, align 8, !tbaa !16
  %63 = getelementptr inbounds nuw i8, ptr %45, i64 4
  %64 = load i32, ptr %63, align 4, !tbaa !17
  %65 = zext i32 %64 to i64
  %66 = getelementptr inbounds nuw i8, ptr %62, i64 %65
  br label %ucm_printMapping.exit19

ucm_printMapping.exit19:                          ; preds = %59, %61
  %67 = phi ptr [ %60, %59 ], [ %66, %61 ]
  tail call fastcc void @_ZL12printMappingP9UCMappingPiPhP8_IO_FILE(ptr noundef nonnull readonly %45, ptr noundef %55, ptr noundef %67, ptr noundef %1)
  %indvars.iv.next = add nuw nsw i64 %indvars.iv, 1
  %exitcond27.not = icmp eq i64 %indvars.iv.next, %wide.trip.count
  br i1 %exitcond27.not, label %.loopexit, label %41, !llvm.loop !27

.loopexit:                                        ; preds = %ucm_printMapping.exit, %ucm_printMapping.exit19, %.preheader, %35
  ret void
}